target datalayout = "e-m:e-p270:32:32-p271:32:32-p272:64:64-i64:64-i128:128-f80:128-n8:16:32:64-S128"
target triple = "x86_64-pc-linux-gnu"

%struct.H5FL_reg_head_t = type { i8, i32, i32, ptr, i64, ptr }
%struct.H5HF_block_iter_t = type { i8, ptr }
%struct.H5HF_block_loc_t = type { i32, i32, i32, ptr, ptr }

@H5_H5HF_block_loc_t_reg_free_list = internal global %struct.H5FL_reg_head_t { i8 0, i32 0, i32 0, ptr @.str.6, i64 32, ptr null }, align 8
@.str = private unnamed_addr constant [102 x i8] c"generated/home/dtcxzyw/WorkSpace/Projects/compilers/llvm-opt-benchmark/bench/hdf5/hdf5/src/H5HFiter.c\00", align 1
@H5E_RESOURCE_g = external global i64, align 8
@H5E_NOSPACE_g = external global i64, align 8
@.str.1 = private unnamed_addr constant [60 x i8] c"memory allocation failed for direct block free list section\00", align 1
@H5E_HEAP_g = external global i64, align 8
@H5E_CANTINC_g = external global i64, align 8
@.str.3 = private unnamed_addr constant [57 x i8] c"can't increment reference count on shared indirect block\00", align 1
@__func__.H5HF__man_iter_down = private unnamed_addr constant [20 x i8] c"H5HF__man_iter_down\00", align 1

; Function Attrs: nounwind uwtable
define i32 @H5HF__man_iter_down(ptr noundef %0, ptr noundef %1) #0 {
  %3 = alloca ptr, align 8
  %4 = alloca ptr, align 8
  %5 = alloca ptr, align 8
  %6 = alloca i32, align 4
  %7 = alloca i8, align 1
  store ptr %0, ptr %3, align 8
  store ptr %1, ptr %4, align 8
  store ptr null, ptr %5, align 8
  store i32 0, ptr %6, align 4
  store i8 0, ptr %7, align 1
  %8 = call noalias ptr @H5FL_reg_malloc(ptr noundef @H5_H5HF_block_loc_t_reg_free_list)
  store ptr %8, ptr %5, align 8
  %9 = icmp eq ptr null, %8
  br i1 %9, label %10, label %25

10:                                               ; preds = %2
  br label %11

11:                                               ; preds = %10
  br label %12

12:                                               ; preds = %11
  br label %13

13:                                               ; preds = %12
  %14 = load i64, ptr @H5E_RESOURCE_g, align 8
  %15 = load i64, ptr @H5E_NOSPACE_g, align 8
  %16 = call i32 (ptr, ptr, i32, i64, i64, ptr, ...) @H5E_printf_stack(ptr noundef @.str, ptr noundef @__func__.H5HF__man_iter_down, i32 noundef 493, i64 noundef %14, i64 noundef %15, ptr noundef @.str.1)
  br label %17

17:                                               ; preds = %13
  store i8 1, ptr %7, align 1
  %18 = load i8, ptr %7, align 1
  %19 = trunc i8 %18 to i1
  %20 = zext i1 %19 to i8
  store i8 %20, ptr %7, align 1
  br label %21

21:                                               ; preds = %17
  br label %22

22:                                               ; preds = %21
  store i32 -1, ptr %6, align 4
  br label %64

23:                                               ; No predecessors!
  br label %24

24:                                               ; preds = %23
  br label %25

25:                                               ; preds = %24, %2
  %26 = load ptr, ptr %5, align 8
  %27 = getelementptr inbounds %struct.H5HF_block_loc_t, ptr %26, i32 0, i32 0
  store i32 0, ptr %27, align 8
  %28 = load ptr, ptr %5, align 8
  %29 = getelementptr inbounds %struct.H5HF_block_loc_t, ptr %28, i32 0, i32 1
  store i32 0, ptr %29, align 4
  %30 = load ptr, ptr %5, align 8
  %31 = getelementptr inbounds %struct.H5HF_block_loc_t, ptr %30, i32 0, i32 2
  store i32 0, ptr %31, align 8
  %32 = load ptr, ptr %4, align 8
  %33 = load ptr, ptr %5, align 8
  %34 = getelementptr inbounds %struct.H5HF_block_loc_t, ptr %33, i32 0, i32 3
  store ptr %32, ptr %34, align 8
  %35 = load ptr, ptr %3, align 8
  %36 = getelementptr inbounds %struct.H5HF_block_iter_t, ptr %35, i32 0, i32 1
  %37 = load ptr, ptr %36, align 8
  %38 = load ptr, ptr %5, align 8
  %39 = getelementptr inbounds %struct.H5HF_block_loc_t, ptr %38, i32 0, i32 4
  store ptr %37, ptr %39, align 8
  %40 = load ptr, ptr %5, align 8
  %41 = getelementptr inbounds %struct.H5HF_block_loc_t, ptr %40, i32 0, i32 3
  %42 = load ptr, ptr %41, align 8
  %43 = call i32 @H5HF__iblock_incr(ptr noundef %42)
  %44 = icmp slt i32 %43, 0
  br i1 %44, label %45, label %60

45:                                               ; preds = %25
  br label %46

46:                                               ; preds = %45
  br label %47

47:                                               ; preds = %46
  br label %48

48:                                               ; preds = %47
  %49 = load i64, ptr @H5E_HEAP_g, align 8
  %50 = load i64, ptr @H5E_CANTINC_g, align 8
  %51 = call i32 (ptr, ptr, i32, i64, i64, ptr, ...) @H5E_printf_stack(ptr noundef @.str, ptr noundef @__func__.H5HF__man_iter_down, i32 noundef 504, i64 noundef %49, i64 noundef %50, ptr noundef @.str.3)
  br label %52

52:                                               ; preds = %48
  store i8 1, ptr %7, align 1
  %53 = load i8, ptr %7, align 1
  %54 = trunc i8 %53 to i1
  %55 = zext i1 %54 to i8
  store i8 %55, ptr %7, align 1
  br label %56

56:                                               ; preds = %52
  br label %57

57:                                               ; preds = %56
  store i32 -1, ptr %6, align 4
  br label %64

58:                                               ; No predecessors!
  br label %59

59:                                               ; preds = %58
  br label %60

60:                                               ; preds = %59, %25
  %61 = load ptr, ptr %5, align 8
  %62 = load ptr, ptr %3, align 8
  %63 = getelementptr inbounds %struct.H5HF_block_iter_t, ptr %62, i32 0, i32 1
  store ptr %61, ptr %63, align 8
  br label %64

64:                                               ; preds = %60, %57, %22
  %65 = load i32, ptr %6, align 4
  %66 = icmp slt i32 %65, 0
  br i1 %66, label %67, label %73

67:                                               ; preds = %64
  %68 = load ptr, ptr %5, align 8
  %69 = icmp ne ptr %68, null
  br i1 %69, label %70, label %73

70:                                               ; preds = %67
  %71 = load ptr, ptr %5, align 8
  %72 = call ptr @H5FL_reg_free(ptr noundef @H5_H5HF_block_loc_t_reg_free_list, ptr noundef %71)
  store ptr %72, ptr %5, align 8
  br label %73

73:                                               ; preds = %70, %67, %64
  %74 = load i32, ptr %6, align 4
  ret i32 %74
}