; Function Attrs: nounwind uwtable
define range(i32 -1, 1) i32 @H5HF__man_iter_down(ptr nocapture noundef %0, ptr noundef %1) local_unnamed_addr #2 {
  %3 = tail call noalias ptr @H5FL_reg_malloc(ptr noundef nonnull @H5_H5HF_block_loc_t_reg_free_list) #8
  %4 = icmp eq ptr %3, null
  br i1 %4, label %5, label %9

5:                                                ; preds = %2
  %6 = load i64, ptr @H5E_RESOURCE_g, align 8
  %7 = load i64, ptr @H5E_NOSPACE_g, align 8
  %8 = tail call i32 (ptr, ptr, i32, i64, i64, ptr, ...) @H5E_printf_stack(ptr noundef nonnull @.str, ptr noundef nonnull @__func__.H5HF__man_iter_down, i32 noundef 493, i64 noundef %6, i64 noundef %7, ptr noundef nonnull @.str.1) #8
  br label %.thread

9:                                                ; preds = %2
  store i32 0, ptr %3, align 8
  %10 = getelementptr inbounds i8, ptr %3, i64 4
  store i32 0, ptr %10, align 4
  %11 = getelementptr inbounds i8, ptr %3, i64 8
  store i32 0, ptr %11, align 8
  %12 = getelementptr inbounds i8, ptr %3, i64 16
  store ptr %1, ptr %12, align 8
  %13 = getelementptr inbounds i8, ptr %0, i64 8
  %14 = load ptr, ptr %13, align 8
  %15 = getelementptr inbounds i8, ptr %3, i64 24
  store ptr %14, ptr %15, align 8
  %16 = tail call i32 @H5HF__iblock_incr(ptr noundef %1) #8
  %17 = icmp slt i32 %16, 0
  br i1 %17, label %19, label %18

18:                                               ; preds = %9
  store ptr %3, ptr %13, align 8
  br label %.thread

19:                                               ; preds = %9
  %20 = load i64, ptr @H5E_HEAP_g, align 8
  %21 = load i64, ptr @H5E_CANTINC_g, align 8
  %22 = tail call i32 (ptr, ptr, i32, i64, i64, ptr, ...) @H5E_printf_stack(ptr noundef nonnull @.str, ptr noundef nonnull @__func__.H5HF__man_iter_down, i32 noundef 504, i64 noundef %20, i64 noundef %21, ptr noundef nonnull @.str.3) #8
  %23 = tail call ptr @H5FL_reg_free(ptr noundef nonnull @H5_H5HF_block_loc_t_reg_free_list, ptr noundef nonnull %3) #8
  br label %.thread

.thread:                                          ; preds = %5, %18, %19
  %.019 = phi i32 [ -1, %19 ], [ 0, %18 ], [ -1, %5 ]
  ret i32 %.019
}